; Function Attrs: nounwind sspstrong uwtable
define dso_local void @tcg_gen_gvec_dup_i32(i32 noundef %0, i32 noundef %1, i32 noundef %2, i32 noundef %3, ptr noundef %4) local_unnamed_addr #2 {
  switch i32 %2, label %8 [
    i32 8, label %6
    i32 16, label %6
    i32 32, label %6
  ]

6:                                                ; preds = %5, %5, %5
  %7 = icmp ule i32 %2, %3
  br label %check_size_align.exit

8:                                                ; preds = %5
  %9 = icmp eq i32 %2, %3
  br label %check_size_align.exit

check_size_align.exit:                            ; preds = %6, %8
  %.sink.i = phi i1 [ %7, %6 ], [ %9, %8 ]
  tail call void @llvm.assume(i1 %.sink.i)
  %10 = icmp ult i32 %3, 2049
  tail call void @llvm.assume(i1 %10)
  %11 = icmp samesign ugt i32 %3, 15
  %12 = select i1 %11, i32 15, i32 7
  %13 = and i32 %12, %3
  %14 = icmp eq i32 %13, 0
  tail call void @llvm.assume(i1 %14)
  %15 = and i32 %12, %1
  %16 = icmp eq i32 %15, 0
  tail call void @llvm.assume(i1 %16)
  %17 = icmp ult i32 %0, 3
  tail call void @llvm.assume(i1 %17)
  tail call fastcc void @do_dup(i32 noundef %0, i32 noundef %1, i32 noundef %2, i32 noundef %3, ptr noundef %4, ptr noundef null, i64 noundef 0)
  ret void
}